target datalayout = "e-m:e-p270:32:32-p271:32:32-p272:64:64-i64:64-i128:128-f80:128-n8:16:32:64-S128"
target triple = "x86_64-pc-linux-gnu"

%struct.BlockIdData = type { i16, i16 }
%struct.ItemPointerData = type { %struct.BlockIdData, i16 }
%struct.GinPostingList = type { %struct.ItemPointerData, i16, [0 x i8] }
%struct.dlist_iter = type { ptr, ptr }
%struct.disassembledLeaf = type { %struct.dlist_head, ptr, i32, i32, i8, ptr, i32 }
%struct.dlist_head = type { %struct.dlist_node }
%struct.dlist_node = type { ptr, ptr }
%struct.leafSegmentInfo = type { %struct.dlist_node, i8, ptr, i16, ptr, ptr, i32 }
%struct.ginxlogRecompressDataLeaf = type { i16 }

@.str.1 = private unnamed_addr constant [14 x i8] c"gindatapage.c\00", align 1
@.str.3 = private unnamed_addr constant [30 x i8] c"unexpected GIN leaf action %d\00", align 1
@__func__.computeLeafRecompressWALData = private unnamed_addr constant [29 x i8] c"computeLeafRecompressWALData\00", align 1

; Function Attrs: nounwind uwtable
define internal void @computeLeafRecompressWALData(ptr noundef %0) #0 {
  %2 = alloca ptr, align 8
  %3 = alloca i32, align 4
  %4 = alloca ptr, align 8
  %5 = alloca ptr, align 8
  %6 = alloca %struct.dlist_iter, align 8
  %7 = alloca i32, align 4
  %8 = alloca ptr, align 8
  %9 = alloca i32, align 4
  %10 = alloca i32, align 4
  %11 = alloca ptr, align 8
  %12 = alloca i32, align 4
  %13 = alloca i32, align 4
  %14 = alloca i32, align 4
  %15 = alloca i32, align 4
  %16 = alloca ptr, align 8
  %17 = alloca i32, align 4
  %18 = alloca i32, align 4
  %19 = alloca i32, align 4
  %20 = alloca i32, align 4
  %21 = alloca i8, align 1
  %22 = alloca i32, align 4
  store ptr %0, ptr %2, align 8
  call void @llvm.lifetime.start.p0(i64 4, ptr %3) #7
  store i32 0, ptr %3, align 4
  call void @llvm.lifetime.start.p0(i64 8, ptr %4) #7
  call void @llvm.lifetime.start.p0(i64 8, ptr %5) #7
  call void @llvm.lifetime.start.p0(i64 16, ptr %6) #7
  call void @llvm.lifetime.start.p0(i64 4, ptr %7) #7
  call void @llvm.lifetime.start.p0(i64 8, ptr %8) #7
  br label %23

23:                                               ; preds = %1
  br label %24

24:                                               ; preds = %23
  br label %25

25:                                               ; preds = %24
  store i32 1, ptr %9, align 4
  br label %26

26:                                               ; preds = %25
  br label %27

27:                                               ; preds = %26
  br label %28

28:                                               ; preds = %27
  store i32 1, ptr %10, align 4
  %29 = load ptr, ptr %2, align 8
  %30 = getelementptr inbounds nuw %struct.disassembledLeaf, ptr %29, i32 0, i32 0
  %31 = getelementptr inbounds nuw %struct.dlist_head, ptr %30, i32 0, i32 0
  %32 = getelementptr inbounds nuw %struct.dlist_iter, ptr %6, i32 0, i32 1
  store ptr %31, ptr %32, align 8
  %33 = getelementptr inbounds nuw %struct.dlist_iter, ptr %6, i32 0, i32 1
  %34 = load ptr, ptr %33, align 8
  %35 = getelementptr inbounds nuw %struct.dlist_node, ptr %34, i32 0, i32 1
  %36 = load ptr, ptr %35, align 8
  %37 = icmp ne ptr %36, null
  br i1 %37, label %38, label %43

38:                                               ; preds = %28
  %39 = getelementptr inbounds nuw %struct.dlist_iter, ptr %6, i32 0, i32 1
  %40 = load ptr, ptr %39, align 8
  %41 = getelementptr inbounds nuw %struct.dlist_node, ptr %40, i32 0, i32 1
  %42 = load ptr, ptr %41, align 8
  br label %46

43:                                               ; preds = %28
  %44 = getelementptr inbounds nuw %struct.dlist_iter, ptr %6, i32 0, i32 1
  %45 = load ptr, ptr %44, align 8
  br label %46

46:                                               ; preds = %43, %38
  %47 = phi ptr [ %42, %38 ], [ %45, %43 ]
  %48 = getelementptr inbounds nuw %struct.dlist_iter, ptr %6, i32 0, i32 0
  store ptr %47, ptr %48, align 8
  br label %49

49:                                               ; preds = %74, %46
  %50 = getelementptr inbounds nuw %struct.dlist_iter, ptr %6, i32 0, i32 0
  %51 = load ptr, ptr %50, align 8
  %52 = getelementptr inbounds nuw %struct.dlist_iter, ptr %6, i32 0, i32 1
  %53 = load ptr, ptr %52, align 8
  %54 = icmp ne ptr %51, %53
  br i1 %54, label %55, label %80

55:                                               ; preds = %49
  call void @llvm.lifetime.start.p0(i64 8, ptr %11) #7
  br label %56

56:                                               ; preds = %55
  br label %57

57:                                               ; preds = %56
  br label %58

58:                                               ; preds = %57
  store i32 1, ptr %12, align 4
  br label %59

59:                                               ; preds = %58
  br label %60

60:                                               ; preds = %59
  br label %61

61:                                               ; preds = %60
  store i32 1, ptr %13, align 4
  %62 = getelementptr inbounds nuw %struct.dlist_iter, ptr %6, i32 0, i32 0
  %63 = load ptr, ptr %62, align 8
  %64 = getelementptr inbounds i8, ptr %63, i64 0
  store ptr %64, ptr %11, align 8
  %65 = load ptr, ptr %11, align 8
  %66 = getelementptr inbounds nuw %struct.leafSegmentInfo, ptr %65, i32 0, i32 1
  %67 = load i8, ptr %66, align 8
  %68 = sext i8 %67 to i32
  %69 = icmp ne i32 %68, 0
  br i1 %69, label %70, label %73

70:                                               ; preds = %61
  %71 = load i32, ptr %3, align 4
  %72 = add i32 %71, 1
  store i32 %72, ptr %3, align 4
  br label %73

73:                                               ; preds = %70, %61
  call void @llvm.lifetime.end.p0(i64 8, ptr %11) #7
  br label %74

74:                                               ; preds = %73
  %75 = getelementptr inbounds nuw %struct.dlist_iter, ptr %6, i32 0, i32 0
  %76 = load ptr, ptr %75, align 8
  %77 = getelementptr inbounds nuw %struct.dlist_node, ptr %76, i32 0, i32 1
  %78 = load ptr, ptr %77, align 8
  %79 = getelementptr inbounds nuw %struct.dlist_iter, ptr %6, i32 0, i32 0
  store ptr %78, ptr %79, align 8
  br label %49, !llvm.loop !11

80:                                               ; preds = %49
  %81 = load i32, ptr %3, align 4
  %82 = mul i32 %81, 2
  %83 = sext i32 %82 to i64
  %84 = add i64 8194, %83
  %85 = call ptr @palloc(i64 noundef %84)
  store ptr %85, ptr %4, align 8
  %86 = load ptr, ptr %4, align 8
  store ptr %86, ptr %5, align 8
  %87 = load ptr, ptr %5, align 8
  store ptr %87, ptr %8, align 8
  %88 = load ptr, ptr %5, align 8
  %89 = getelementptr inbounds nuw i8, ptr %88, i64 2
  store ptr %89, ptr %5, align 8
  %90 = load i32, ptr %3, align 4
  %91 = trunc i32 %90 to i16
  %92 = load ptr, ptr %8, align 8
  %93 = getelementptr inbounds nuw %struct.ginxlogRecompressDataLeaf, ptr %92, i32 0, i32 0
  store i16 %91, ptr %93, align 2
  store i32 0, ptr %7, align 4
  br label %94

94:                                               ; preds = %80
  br label %95

95:                                               ; preds = %94
  br label %96

96:                                               ; preds = %95
  store i32 1, ptr %14, align 4
  br label %97

97:                                               ; preds = %96
  br label %98

98:                                               ; preds = %97
  br label %99

99:                                               ; preds = %98
  store i32 1, ptr %15, align 4
  %100 = load ptr, ptr %2, align 8
  %101 = getelementptr inbounds nuw %struct.disassembledLeaf, ptr %100, i32 0, i32 0
  %102 = getelementptr inbounds nuw %struct.dlist_head, ptr %101, i32 0, i32 0
  %103 = getelementptr inbounds nuw %struct.dlist_iter, ptr %6, i32 0, i32 1
  store ptr %102, ptr %103, align 8
  %104 = getelementptr inbounds nuw %struct.dlist_iter, ptr %6, i32 0, i32 1
  %105 = load ptr, ptr %104, align 8
  %106 = getelementptr inbounds nuw %struct.dlist_node, ptr %105, i32 0, i32 1
  %107 = load ptr, ptr %106, align 8
  %108 = icmp ne ptr %107, null
  br i1 %108, label %109, label %114

109:                                              ; preds = %99
  %110 = getelementptr inbounds nuw %struct.dlist_iter, ptr %6, i32 0, i32 1
  %111 = load ptr, ptr %110, align 8
  %112 = getelementptr inbounds nuw %struct.dlist_node, ptr %111, i32 0, i32 1
  %113 = load ptr, ptr %112, align 8
  br label %117

114:                                              ; preds = %99
  %115 = getelementptr inbounds nuw %struct.dlist_iter, ptr %6, i32 0, i32 1
  %116 = load ptr, ptr %115, align 8
  br label %117

117:                                              ; preds = %114, %109
  %118 = phi ptr [ %113, %109 ], [ %116, %114 ]
  %119 = getelementptr inbounds nuw %struct.dlist_iter, ptr %6, i32 0, i32 0
  store ptr %118, ptr %119, align 8
  br label %120

120:                                              ; preds = %246, %117
  %121 = getelementptr inbounds nuw %struct.dlist_iter, ptr %6, i32 0, i32 0
  %122 = load ptr, ptr %121, align 8
  %123 = getelementptr inbounds nuw %struct.dlist_iter, ptr %6, i32 0, i32 1
  %124 = load ptr, ptr %123, align 8
  %125 = icmp ne ptr %122, %124
  br i1 %125, label %126, label %252

126:                                              ; preds = %120
  call void @llvm.lifetime.start.p0(i64 8, ptr %16) #7
  br label %127

127:                                              ; preds = %126
  br label %128

128:                                              ; preds = %127
  br label %129

129:                                              ; preds = %128
  store i32 1, ptr %17, align 4
  br label %130

130:                                              ; preds = %129
  br label %131

131:                                              ; preds = %130
  br label %132

132:                                              ; preds = %131
  store i32 1, ptr %18, align 4
  %133 = getelementptr inbounds nuw %struct.dlist_iter, ptr %6, i32 0, i32 0
  %134 = load ptr, ptr %133, align 8
  %135 = getelementptr inbounds i8, ptr %134, i64 0
  store ptr %135, ptr %16, align 8
  call void @llvm.lifetime.start.p0(i64 4, ptr %19) #7
  store i32 0, ptr %19, align 4
  call void @llvm.lifetime.start.p0(i64 4, ptr %20) #7
  call void @llvm.lifetime.start.p0(i64 1, ptr %21) #7
  %136 = load ptr, ptr %16, align 8
  %137 = getelementptr inbounds nuw %struct.leafSegmentInfo, ptr %136, i32 0, i32 1
  %138 = load i8, ptr %137, align 8
  store i8 %138, ptr %21, align 1
  %139 = load i8, ptr %21, align 1
  %140 = zext i8 %139 to i32
  %141 = icmp eq i32 %140, 0
  br i1 %141, label %142, label %145

142:                                              ; preds = %132
  %143 = load i32, ptr %7, align 4
  %144 = add i32 %143, 1
  store i32 %144, ptr %7, align 4
  store i32 19, ptr %22, align 4
  br label %243

145:                                              ; preds = %132
  %146 = load i8, ptr %21, align 1
  %147 = zext i8 %146 to i32
  %148 = icmp ne i32 %147, 1
  br i1 %148, label %149, label %160

149:                                              ; preds = %145
  %150 = load ptr, ptr %16, align 8
  %151 = getelementptr inbounds nuw %struct.leafSegmentInfo, ptr %150, i32 0, i32 4
  %152 = load ptr, ptr %151, align 8
  %153 = getelementptr inbounds nuw %struct.GinPostingList, ptr %152, i32 0, i32 1
  %154 = load i16, ptr %153, align 2
  %155 = zext i16 %154 to i64
  %156 = add i64 %155, 1
  %157 = and i64 %156, -2
  %158 = add i64 8, %157
  %159 = trunc i64 %158 to i32
  store i32 %159, ptr %19, align 4
  br label %160

160:                                              ; preds = %149, %145
  %161 = load i8, ptr %21, align 1
  %162 = zext i8 %161 to i32
  %163 = icmp eq i32 %162, 4
  br i1 %163, label %164, label %174

164:                                              ; preds = %160
  %165 = load ptr, ptr %16, align 8
  %166 = getelementptr inbounds nuw %struct.leafSegmentInfo, ptr %165, i32 0, i32 3
  %167 = load i16, ptr %166, align 8
  %168 = zext i16 %167 to i64
  %169 = mul i64 %168, 6
  %170 = load i32, ptr %19, align 4
  %171 = sext i32 %170 to i64
  %172 = icmp ugt i64 %169, %171
  br i1 %172, label %173, label %174

173:                                              ; preds = %164
  store i8 3, ptr %21, align 1
  br label %174

174:                                              ; preds = %173, %164, %160
  %175 = load i32, ptr %7, align 4
  %176 = trunc i32 %175 to i8
  %177 = load ptr, ptr %5, align 8
  %178 = getelementptr inbounds nuw i8, ptr %177, i32 1
  store ptr %178, ptr %5, align 8
  store i8 %176, ptr %177, align 1
  %179 = load i8, ptr %21, align 1
  %180 = load ptr, ptr %5, align 8
  %181 = getelementptr inbounds nuw i8, ptr %180, i32 1
  store ptr %181, ptr %5, align 8
  store i8 %179, ptr %180, align 1
  %182 = load i8, ptr %21, align 1
  %183 = zext i8 %182 to i32
  switch i32 %183, label %218 [
    i32 1, label %184
    i32 4, label %185
    i32 2, label %206
    i32 3, label %206
  ]

184:                                              ; preds = %174
  store i32 0, ptr %20, align 4
  br label %231

185:                                              ; preds = %174
  %186 = load ptr, ptr %16, align 8
  %187 = getelementptr inbounds nuw %struct.leafSegmentInfo, ptr %186, i32 0, i32 3
  %188 = load i16, ptr %187, align 8
  %189 = zext i16 %188 to i64
  %190 = mul i64 %189, 6
  %191 = trunc i64 %190 to i32
  store i32 %191, ptr %20, align 4
  %192 = load ptr, ptr %5, align 8
  %193 = load ptr, ptr %16, align 8
  %194 = getelementptr inbounds nuw %struct.leafSegmentInfo, ptr %193, i32 0, i32 3
  call void @llvm.memcpy.p0.p0.i64(ptr align 1 %192, ptr align 8 %194, i64 2, i1 false)
  %195 = load ptr, ptr %5, align 8
  %196 = getelementptr inbounds nuw i8, ptr %195, i64 2
  %197 = load ptr, ptr %16, align 8
  %198 = getelementptr inbounds nuw %struct.leafSegmentInfo, ptr %197, i32 0, i32 2
  %199 = load ptr, ptr %198, align 8
  %200 = load i32, ptr %20, align 4
  %201 = sext i32 %200 to i64
  call void @llvm.memcpy.p0.p0.i64(ptr align 1 %196, ptr align 2 %199, i64 %201, i1 false)
  %202 = load i32, ptr %20, align 4
  %203 = sext i32 %202 to i64
  %204 = add i64 %203, 2
  %205 = trunc i64 %204 to i32
  store i32 %205, ptr %20, align 4
  br label %231

206:                                              ; preds = %174, %174
  %207 = load i32, ptr %19, align 4
  %208 = sext i32 %207 to i64
  %209 = add i64 %208, 1
  %210 = and i64 %209, -2
  %211 = trunc i64 %210 to i32
  store i32 %211, ptr %20, align 4
  %212 = load ptr, ptr %5, align 8
  %213 = load ptr, ptr %16, align 8
  %214 = getelementptr inbounds nuw %struct.leafSegmentInfo, ptr %213, i32 0, i32 4
  %215 = load ptr, ptr %214, align 8
  %216 = load i32, ptr %19, align 4
  %217 = sext i32 %216 to i64
  call void @llvm.memcpy.p0.p0.i64(ptr align 1 %212, ptr align 2 %215, i64 %217, i1 false)
  br label %231

218:                                              ; preds = %174
  br label %219

219:                                              ; preds = %218
  br i1 true, label %220, label %222

220:                                              ; preds = %219
  %221 = call zeroext i1 @errstart_cold(i32 noundef 21, ptr noundef null) #8
  br i1 %221, label %224, label %228

222:                                              ; preds = %219
  %223 = call zeroext i1 @errstart(i32 noundef 21, ptr noundef null)
  br i1 %223, label %224, label %228

224:                                              ; preds = %222, %220
  %225 = load i8, ptr %21, align 1
  %226 = zext i8 %225 to i32
  %227 = call i32 (ptr, ...) @errmsg_internal(ptr noundef @.str.3, i32 noundef %226)
  call void @errfinish(ptr noundef @.str.1, i32 noundef 955, ptr noundef @__func__.computeLeafRecompressWALData)
  br label %228

228:                                              ; preds = %224, %222, %220
  unreachable

229:                                              ; No predecessors!
  br label %230

230:                                              ; preds = %229
  br label %231

231:                                              ; preds = %230, %206, %185, %184
  %232 = load i32, ptr %20, align 4
  %233 = load ptr, ptr %5, align 8
  %234 = sext i32 %232 to i64
  %235 = getelementptr inbounds i8, ptr %233, i64 %234
  store ptr %235, ptr %5, align 8
  %236 = load i8, ptr %21, align 1
  %237 = zext i8 %236 to i32
  %238 = icmp ne i32 %237, 2
  br i1 %238, label %239, label %242

239:                                              ; preds = %231
  %240 = load i32, ptr %7, align 4
  %241 = add i32 %240, 1
  store i32 %241, ptr %7, align 4
  br label %242

242:                                              ; preds = %239, %231
  store i32 0, ptr %22, align 4
  br label %243

243:                                              ; preds = %242, %142
  call void @llvm.lifetime.end.p0(i64 1, ptr %21) #7
  call void @llvm.lifetime.end.p0(i64 4, ptr %20) #7
  call void @llvm.lifetime.end.p0(i64 4, ptr %19) #7
  call void @llvm.lifetime.end.p0(i64 8, ptr %16) #7
  %244 = load i32, ptr %22, align 4
  switch i32 %244, label %264 [
    i32 0, label %245
    i32 19, label %246
  ]

245:                                              ; preds = %243
  br label %246

246:                                              ; preds = %245, %243
  %247 = getelementptr inbounds nuw %struct.dlist_iter, ptr %6, i32 0, i32 0
  %248 = load ptr, ptr %247, align 8
  %249 = getelementptr inbounds nuw %struct.dlist_node, ptr %248, i32 0, i32 1
  %250 = load ptr, ptr %249, align 8
  %251 = getelementptr inbounds nuw %struct.dlist_iter, ptr %6, i32 0, i32 0
  store ptr %250, ptr %251, align 8
  br label %120, !llvm.loop !12

252:                                              ; preds = %120
  %253 = load ptr, ptr %4, align 8
  %254 = load ptr, ptr %2, align 8
  %255 = getelementptr inbounds nuw %struct.disassembledLeaf, ptr %254, i32 0, i32 5
  store ptr %253, ptr %255, align 8
  %256 = load ptr, ptr %5, align 8
  %257 = load ptr, ptr %4, align 8
  %258 = ptrtoint ptr %256 to i64
  %259 = ptrtoint ptr %257 to i64
  %260 = sub i64 %258, %259
  %261 = trunc i64 %260 to i32
  %262 = load ptr, ptr %2, align 8
  %263 = getelementptr inbounds nuw %struct.disassembledLeaf, ptr %262, i32 0, i32 6
  store i32 %261, ptr %263, align 8
  call void @llvm.lifetime.end.p0(i64 8, ptr %8) #7
  call void @llvm.lifetime.end.p0(i64 4, ptr %7) #7
  call void @llvm.lifetime.end.p0(i64 16, ptr %6) #7
  call void @llvm.lifetime.end.p0(i64 8, ptr %5) #7
  call void @llvm.lifetime.end.p0(i64 8, ptr %4) #7
  call void @llvm.lifetime.end.p0(i64 4, ptr %3) #7
  ret void

264:                                              ; preds = %243
  unreachable
}