; Function Attrs: nounwind uwtable
define internal fastcc void @computeLeafRecompressWALData(ptr noundef captures(address) %0) unnamed_addr #0 {
  %2 = getelementptr inbounds nuw i8, ptr %0, i64 8
  %3 = load ptr, ptr %2, align 8
  %.not = icmp eq ptr %3, null
  %.not6692104 = icmp eq ptr %3, %0
  %.not6692 = or i1 %.not, %.not6692104
  br i1 %.not6692, label %._crit_edge, label %.lr.ph

.lr.ph:                                           ; preds = %1, %.lr.ph
  %.05794 = phi i32 [ %spec.select, %.lr.ph ], [ 0, %1 ]
  %.sroa.0.093 = phi ptr [ %8, %.lr.ph ], [ %3, %1 ]
  %4 = getelementptr inbounds nuw i8, ptr %.sroa.0.093, i64 16
  %5 = load i8, ptr %4, align 8
  %.not71 = icmp ne i8 %5, 0
  %6 = zext i1 %.not71 to i32
  %spec.select = add i32 %.05794, %6
  %7 = getelementptr inbounds nuw i8, ptr %.sroa.0.093, i64 8
  %8 = load ptr, ptr %7, align 8
  %.not66 = icmp eq ptr %8, %0
  br i1 %.not66, label %._crit_edge, label %.lr.ph, !llvm.loop !10

._crit_edge:                                      ; preds = %.lr.ph, %1
  %.057.lcssa = phi i32 [ 0, %1 ], [ %spec.select, %.lr.ph ]
  %9 = shl i32 %.057.lcssa, 1
  %10 = sext i32 %9 to i64
  %11 = add nsw i64 %10, 8194
  %12 = tail call ptr @palloc(i64 noundef %11) #11
  %13 = getelementptr inbounds nuw i8, ptr %12, i64 2
  %14 = trunc i32 %.057.lcssa to i16
  store i16 %14, ptr %12, align 2
  %15 = load ptr, ptr %2, align 8
  %.not67 = icmp eq ptr %15, null
  %.not6895105 = icmp eq ptr %15, %0
  %.not6895 = or i1 %.not67, %.not6895105
  br i1 %.not6895, label %._crit_edge101, label %.lr.ph100

.lr.ph100:                                        ; preds = %._crit_edge, %66
  %.05898 = phi ptr [ %.159, %66 ], [ %13, %._crit_edge ]
  %.sroa.0.197 = phi ptr [ %68, %66 ], [ %15, %._crit_edge ]
  %.06096 = phi i32 [ %.161, %66 ], [ 0, %._crit_edge ]
  %16 = getelementptr inbounds nuw i8, ptr %.sroa.0.197, i64 16
  %17 = load i8, ptr %16, align 8
  switch i8 %17, label %22 [
    i8 0, label %20
    i8 1, label %.thread77
  ]

.thread77:                                        ; preds = %.lr.ph100
  %18 = trunc i32 %.06096 to i8
  %19 = getelementptr inbounds nuw i8, ptr %.05898, i64 1
  store i8 %18, ptr %.05898, align 1
  store i8 1, ptr %19, align 1
  br label %63

20:                                               ; preds = %.lr.ph100
  %21 = add i32 %.06096, 1
  br label %66

22:                                               ; preds = %.lr.ph100
  %23 = getelementptr inbounds nuw i8, ptr %.sroa.0.197, i64 40
  %24 = load ptr, ptr %23, align 8
  %25 = getelementptr inbounds nuw i8, ptr %24, i64 6
  %26 = load i16, ptr %25, align 2
  %27 = zext i16 %26 to i64
  %28 = add nuw nsw i64 %27, 1
  %29 = and i64 %28, 131070
  %30 = add nuw nsw i64 %29, 8
  %31 = icmp eq i8 %17, 4
  br i1 %31, label %32, label %48

32:                                               ; preds = %22
  %33 = getelementptr inbounds nuw i8, ptr %.sroa.0.197, i64 32
  %34 = load i16, ptr %33, align 8
  %35 = zext i16 %34 to i64
  %36 = mul nuw nsw i64 %35, 6
  %37 = icmp samesign ugt i64 %36, %30
  %38 = trunc i32 %.06096 to i8
  %39 = getelementptr inbounds nuw i8, ptr %.05898, i64 1
  store i8 %38, ptr %.05898, align 1
  br i1 %37, label %.thread85, label %.thread81

.thread81:                                        ; preds = %32
  %40 = getelementptr inbounds nuw i8, ptr %.05898, i64 2
  store i8 4, ptr %39, align 1
  %41 = load i16, ptr %33, align 8
  %42 = zext i16 %41 to i64
  %43 = mul nuw nsw i64 %42, 6
  store i16 %41, ptr %40, align 1
  %44 = getelementptr inbounds nuw i8, ptr %.05898, i64 4
  %45 = getelementptr inbounds nuw i8, ptr %.sroa.0.197, i64 24
  %46 = load ptr, ptr %45, align 8
  tail call void @llvm.memcpy.p0.p0.i64(ptr nonnull align 1 %44, ptr align 2 %46, i64 %43, i1 false)
  %47 = add nuw nsw i64 %43, 2
  br label %63

.thread85:                                        ; preds = %32
  store i8 3, ptr %39, align 1
  br label %52

48:                                               ; preds = %22
  %49 = trunc i32 %.06096 to i8
  %50 = getelementptr inbounds nuw i8, ptr %.05898, i64 1
  store i8 %49, ptr %.05898, align 1
  store i8 %17, ptr %50, align 1
  %51 = and i8 %17, -2
  %switch = icmp eq i8 %51, 2
  br i1 %switch, label %52, label %59

52:                                               ; preds = %48, %.thread85
  %.090 = phi i8 [ 3, %.thread85 ], [ %17, %48 ]
  %53 = getelementptr inbounds nuw i8, ptr %.05898, i64 2
  %54 = add nuw nsw i64 %29, 9
  %55 = and i64 %54, 262142
  %56 = load ptr, ptr %23, align 8
  tail call void @llvm.memcpy.p0.p0.i64(ptr noundef nonnull align 1 dereferenceable(1) %53, ptr noundef nonnull align 2 dereferenceable(1) %56, i64 %30, i1 false)
  %57 = icmp ne i8 %.090, 2
  %58 = zext i1 %57 to i32
  br label %63

59:                                               ; preds = %48
  %60 = zext i8 %17 to i32
  %61 = tail call zeroext i1 @errstart_cold(i32 noundef 21, ptr noundef null) #12
  tail call void @llvm.assume(i1 %61)
  %62 = tail call i32 (ptr, ...) @errmsg_internal(ptr noundef nonnull @.str.3, i32 noundef %60) #11
  tail call void @errfinish(ptr noundef nonnull @.str.1, i32 noundef 955, ptr noundef nonnull @__func__.computeLeafRecompressWALData) #11
  unreachable

63:                                               ; preds = %.thread77, %52, %.thread81
  %.080 = phi i32 [ %58, %52 ], [ 1, %.thread81 ], [ 1, %.thread77 ]
  %.055 = phi i64 [ %55, %52 ], [ %47, %.thread81 ], [ 0, %.thread77 ]
  %64 = getelementptr inbounds nuw i8, ptr %.05898, i64 2
  %65 = getelementptr inbounds nuw i8, ptr %64, i64 %.055
  %spec.select74 = add i32 %.080, %.06096
  br label %66

66:                                               ; preds = %63, %20
  %.161 = phi i32 [ %21, %20 ], [ %spec.select74, %63 ]
  %.159 = phi ptr [ %.05898, %20 ], [ %65, %63 ]
  %67 = getelementptr inbounds nuw i8, ptr %.sroa.0.197, i64 8
  %68 = load ptr, ptr %67, align 8
  %.not68 = icmp eq ptr %68, %0
  br i1 %.not68, label %._crit_edge101, label %.lr.ph100, !llvm.loop !11

._crit_edge101:                                   ; preds = %66, %._crit_edge
  %.058.lcssa = phi ptr [ %13, %._crit_edge ], [ %.159, %66 ]
  %69 = getelementptr inbounds nuw i8, ptr %0, i64 40
  store ptr %12, ptr %69, align 8
  %70 = ptrtoint ptr %.058.lcssa to i64
  %71 = ptrtoint ptr %12 to i64
  %72 = sub i64 %70, %71
  %73 = trunc i64 %72 to i32
  %74 = getelementptr inbounds nuw i8, ptr %0, i64 48
  store i32 %73, ptr %74, align 8
  ret void
}